; Function Attrs: nounwind uwtable
define hidden void @ma_lpf2_uninit(ptr noundef readonly captures(address_is_null) %0, ptr noundef readonly captures(address_is_null) %1) local_unnamed_addr #7 {
  %3 = icmp eq ptr %0, null
  br i1 %3, label %ma_biquad_uninit.exit, label %4

4:                                                ; preds = %2
  %5 = getelementptr inbounds nuw i8, ptr %0, i64 56
  %6 = load i32, ptr %5, align 8
  %.not.i = icmp eq i32 %6, 0
  br i1 %.not.i, label %ma_biquad_uninit.exit, label %7

7:                                                ; preds = %4
  %8 = getelementptr inbounds nuw i8, ptr %0, i64 48
  %9 = load ptr, ptr %8, align 8
  %10 = icmp eq ptr %9, null
  br i1 %10, label %ma_biquad_uninit.exit, label %11

11:                                               ; preds = %7
  %.not.i.i = icmp eq ptr %1, null
  br i1 %.not.i.i, label %17, label %12

12:                                               ; preds = %11
  %13 = getelementptr inbounds nuw i8, ptr %1, i64 24
  %14 = load ptr, ptr %13, align 8
  %.not9.i.i = icmp eq ptr %14, null
  br i1 %.not9.i.i, label %ma_biquad_uninit.exit, label %15

15:                                               ; preds = %12
  %16 = load ptr, ptr %1, align 8
  tail call void %14(ptr noundef nonnull %9, ptr noundef %16) #72
  br label %ma_biquad_uninit.exit

17:                                               ; preds = %11
  tail call void @free(ptr noundef nonnull %9) #72
  br label %ma_biquad_uninit.exit

ma_biquad_uninit.exit:                            ; preds = %17, %15, %12, %7, %4, %2
  ret void
}